target datalayout = "e-m:e-p270:32:32-p271:32:32-p272:64:64-i64:64-i128:128-f80:128-n8:16:32:64-S128"
target triple = "x86_64-pc-linux-gnu"

%"class.LIEF::MachO::RelocationFixup" = type { %"class.LIEF::MachO::Relocation", i32, i64, i32, i32, %union.anon.38 }
%"class.LIEF::MachO::Relocation" = type { %"class.LIEF::Relocation.base", ptr, i8, i32, ptr, ptr }
%"class.LIEF::Relocation.base" = type <{ %"class.LIEF::Object", i64, i8 }>
%"class.LIEF::Object" = type { ptr }
%union.anon.38 = type { ptr }

; Function Attrs: mustprogress nounwind uwtable
define hidden void @_ZN4LIEF5MachO15RelocationFixup3setERKNS0_7details35dyld_chained_ptr_arm64e_auth_rebaseE(ptr noundef nonnull align 8 dereferenceable(88) %0, ptr noundef nonnull align 8 dereferenceable(8) %1) #1 align 2 {
  %3 = alloca ptr, align 8
  %4 = alloca ptr, align 8
  store ptr %0, ptr %3, align 8, !tbaa !15
  store ptr %1, ptr %4, align 8, !tbaa !62
  %5 = load ptr, ptr %3, align 8
  %6 = getelementptr inbounds nuw %"class.LIEF::MachO::RelocationFixup", ptr %5, i32 0, i32 4
  store i32 2, ptr %6, align 4, !tbaa !19
  %7 = call noalias noundef nonnull ptr @_Znwm(i64 noundef 8) #21
  %8 = load ptr, ptr %4, align 8, !tbaa !62
  call void @llvm.memcpy.p0.p0.i64(ptr align 8 %7, ptr align 8 %8, i64 8, i1 false), !tbaa.struct !42
  %9 = getelementptr inbounds nuw %"class.LIEF::MachO::RelocationFixup", ptr %5, i32 0, i32 5
  store ptr %7, ptr %9, align 8, !tbaa !10
  ret void
}